; Function Attrs: mustprogress nofree norecurse nosync nounwind willreturn memory(none) uwtable
define dso_local { ptr, i64 } @_ZN4llvm4CSKY10getFPUNameEj(i32 noundef %0) local_unnamed_addr #1 {
  %2 = icmp ugt i32 %0, 8
  br i1 %2, label %9, label %3

3:                                                ; preds = %1
  %4 = zext nneg i32 %0 to i64
  %5 = getelementptr inbounds nuw [9 x %"struct.llvm::CSKY::FPUName"], ptr @_ZN4llvm4CSKYL8FPUNamesE, i64 0, i64 %4
  %6 = load ptr, ptr %5, align 8
  %7 = getelementptr inbounds nuw i8, ptr %5, i64 8
  %8 = load i64, ptr %7, align 8
  br label %9

9:                                                ; preds = %1, %3
  %.sroa.0.0 = phi ptr [ %6, %3 ], [ null, %1 ]
  %.sroa.4.0 = phi i64 [ %8, %3 ], [ 0, %1 ]
  %.fca.0.insert = insertvalue { ptr, i64 } poison, ptr %.sroa.0.0, 0
  %.fca.1.insert = insertvalue { ptr, i64 } %.fca.0.insert, i64 %.sroa.4.0, 1
  ret { ptr, i64 } %.fca.1.insert
}